target datalayout = "e-m:e-p270:32:32-p271:32:32-p272:64:64-i64:64-i128:128-f80:128-n8:16:32:64-S128"
target triple = "x86_64-pc-linux-gnu"

%struct.Vec_Ptr_t_ = type { i32, i32, ptr }

; Function Attrs: inlinehint nounwind uwtable
define internal ptr @Vec_PtrEntry(ptr noundef %0, i32 noundef %1) #4 {
  %3 = alloca ptr, align 8
  %4 = alloca i32, align 4
  store ptr %0, ptr %3, align 8, !tbaa !44
  store i32 %1, ptr %4, align 4, !tbaa !3
  %5 = load ptr, ptr %3, align 8, !tbaa !44
  %6 = getelementptr inbounds nuw %struct.Vec_Ptr_t_, ptr %5, i32 0, i32 2
  %7 = load ptr, ptr %6, align 8, !tbaa !61
  %8 = load i32, ptr %4, align 4, !tbaa !3
  %9 = sext i32 %8 to i64
  %10 = getelementptr inbounds ptr, ptr %7, i64 %9
  %11 = load ptr, ptr %10, align 8, !tbaa !27
  ret ptr %11
}

; Function Attrs: inlinehint nounwind uwtable
define internal i32 @Vec_PtrSize(ptr noundef %0) #4 {
  %2 = alloca ptr, align 8
  store ptr %0, ptr %2, align 8, !tbaa !44
  %3 = load ptr, ptr %2, align 8, !tbaa !44
  %4 = getelementptr inbounds nuw %struct.Vec_Ptr_t_, ptr %3, i32 0, i32 1
  %5 = load i32, ptr %4, align 4, !tbaa !45
  ret i32 %5
}

; Function Attrs: nounwind uwtable
define void @Res_SimPadSimInfo(ptr noundef %0, i32 noundef %1, i32 noundef %2) #0 {
  %4 = alloca ptr, align 8
  %5 = alloca i32, align 4
  %6 = alloca i32, align 4
  %7 = alloca ptr, align 8
  %8 = alloca i32, align 4
  %9 = alloca i32, align 4
  %10 = alloca i32, align 4
  store ptr %0, ptr %4, align 8, !tbaa !44
  store i32 %1, ptr %5, align 4, !tbaa !3
  store i32 %2, ptr %6, align 4, !tbaa !3
  call void @llvm.lifetime.start.p0(i64 8, ptr %7) #7
  call void @llvm.lifetime.start.p0(i64 4, ptr %8) #7
  call void @llvm.lifetime.start.p0(i64 4, ptr %9) #7
  call void @llvm.lifetime.start.p0(i64 4, ptr %10) #7
  %11 = load i32, ptr %5, align 4, !tbaa !3
  %12 = sext i32 %11 to i64
  %13 = icmp ult i64 %12, 32
  br i1 %13, label %14, label %44

14:                                               ; preds = %3
  store i32 0, ptr %8, align 4, !tbaa !3
  br label %15

15:                                               ; preds = %40, %14
  %16 = load i32, ptr %8, align 4, !tbaa !3
  %17 = load ptr, ptr %4, align 8, !tbaa !44
  %18 = call i32 @Vec_PtrSize(ptr noundef %17)
  %19 = icmp slt i32 %16, %18
  br i1 %19, label %20, label %24

20:                                               ; preds = %15
  %21 = load ptr, ptr %4, align 8, !tbaa !44
  %22 = load i32, ptr %8, align 4, !tbaa !3
  %23 = call ptr @Vec_PtrEntry(ptr noundef %21, i32 noundef %22)
  store ptr %23, ptr %7, align 8, !tbaa !28
  br label %24

24:                                               ; preds = %20, %15
  %25 = phi i1 [ false, %15 ], [ true, %20 ]
  br i1 %25, label %26, label %43

26:                                               ; preds = %24
  %27 = load ptr, ptr %7, align 8, !tbaa !28
  %28 = getelementptr inbounds i32, ptr %27, i64 0
  %29 = load i32, ptr %28, align 4, !tbaa !3
  %30 = and i32 %29, 1
  %31 = icmp ne i32 %30, 0
  br i1 %31, label %32, label %39

32:                                               ; preds = %26
  %33 = load i32, ptr %5, align 4, !tbaa !3
  %34 = shl i32 -1, %33
  %35 = load ptr, ptr %7, align 8, !tbaa !28
  %36 = getelementptr inbounds i32, ptr %35, i64 0
  %37 = load i32, ptr %36, align 4, !tbaa !3
  %38 = or i32 %37, %34
  store i32 %38, ptr %36, align 4, !tbaa !3
  br label %39

39:                                               ; preds = %32, %26
  br label %40

40:                                               ; preds = %39
  %41 = load i32, ptr %8, align 4, !tbaa !3
  %42 = add nsw i32 %41, 1
  store i32 %42, ptr %8, align 4, !tbaa !3
  br label %15, !llvm.loop !96

43:                                               ; preds = %24
  store i32 32, ptr %5, align 4, !tbaa !3
  br label %44

44:                                               ; preds = %43, %3
  %45 = load i32, ptr %5, align 4, !tbaa !3
  %46 = sext i32 %45 to i64
  %47 = udiv i64 %46, 32
  %48 = trunc i64 %47 to i32
  store i32 %48, ptr %10, align 4, !tbaa !3
  store i32 0, ptr %8, align 4, !tbaa !3
  br label %49

49:                                               ; preds = %78, %44
  %50 = load i32, ptr %8, align 4, !tbaa !3
  %51 = load ptr, ptr %4, align 8, !tbaa !44
  %52 = call i32 @Vec_PtrSize(ptr noundef %51)
  %53 = icmp slt i32 %50, %52
  br i1 %53, label %54, label %58

54:                                               ; preds = %49
  %55 = load ptr, ptr %4, align 8, !tbaa !44
  %56 = load i32, ptr %8, align 4, !tbaa !3
  %57 = call ptr @Vec_PtrEntry(ptr noundef %55, i32 noundef %56)
  store ptr %57, ptr %7, align 8, !tbaa !28
  br label %58

58:                                               ; preds = %54, %49
  %59 = phi i1 [ false, %49 ], [ true, %54 ]
  br i1 %59, label %60, label %81

60:                                               ; preds = %58
  %61 = load i32, ptr %10, align 4, !tbaa !3
  store i32 %61, ptr %9, align 4, !tbaa !3
  br label %62

62:                                               ; preds = %74, %60
  %63 = load i32, ptr %9, align 4, !tbaa !3
  %64 = load i32, ptr %6, align 4, !tbaa !3
  %65 = icmp slt i32 %63, %64
  br i1 %65, label %66, label %77

66:                                               ; preds = %62
  %67 = load ptr, ptr %7, align 8, !tbaa !28
  %68 = getelementptr inbounds i32, ptr %67, i64 0
  %69 = load i32, ptr %68, align 4, !tbaa !3
  %70 = load ptr, ptr %7, align 8, !tbaa !28
  %71 = load i32, ptr %9, align 4, !tbaa !3
  %72 = sext i32 %71 to i64
  %73 = getelementptr inbounds i32, ptr %70, i64 %72
  store i32 %69, ptr %73, align 4, !tbaa !3
  br label %74

74:                                               ; preds = %66
  %75 = load i32, ptr %9, align 4, !tbaa !3
  %76 = add nsw i32 %75, 1
  store i32 %76, ptr %9, align 4, !tbaa !3
  br label %62, !llvm.loop !97

77:                                               ; preds = %62
  br label %78

78:                                               ; preds = %77
  %79 = load i32, ptr %8, align 4, !tbaa !3
  %80 = add nsw i32 %79, 1
  store i32 %80, ptr %8, align 4, !tbaa !3
  br label %49, !llvm.loop !98

81:                                               ; preds = %58
  call void @llvm.lifetime.end.p0(i64 4, ptr %10) #7
  call void @llvm.lifetime.end.p0(i64 4, ptr %9) #7
  call void @llvm.lifetime.end.p0(i64 4, ptr %8) #7
  call void @llvm.lifetime.end.p0(i64 8, ptr %7) #7
  ret void
}