; Function Attrs: nofree norecurse nosync nounwind memory(readwrite, inaccessiblemem: none) uwtable
define void @Res_SimPadSimInfo(ptr noundef readonly captures(none) %0, i32 noundef %1, i32 noundef %2) local_unnamed_addr #7 {
  %4 = icmp ult i32 %1, 32
  %5 = getelementptr i8, ptr %0, i64 4
  %.val2528 = load i32, ptr %5, align 4, !tbaa !22
  br i1 %4, label %.preheader, label %..critedge_crit_edge

..critedge_crit_edge:                             ; preds = %3
  %6 = ashr i32 %1, 5
  br label %.critedge

.preheader:                                       ; preds = %3
  %7 = icmp sgt i32 %.val2528, 0
  br i1 %7, label %.lr.ph, label %.critedge2

.lr.ph:                                           ; preds = %.preheader
  %8 = getelementptr i8, ptr %0, i64 8
  %.val27 = load ptr, ptr %8, align 8, !tbaa !25
  %9 = shl nsw i32 -1, %1
  br label %10

10:                                               ; preds = %.lr.ph, %17
  %.val2543 = phi i32 [ %.val2528, %.lr.ph ], [ %.val25, %17 ]
  %indvars.iv = phi i64 [ 0, %.lr.ph ], [ %indvars.iv.next, %17 ]
  %11 = getelementptr inbounds nuw ptr, ptr %.val27, i64 %indvars.iv
  %12 = load ptr, ptr %11, align 8, !tbaa !19
  %13 = load i32, ptr %12, align 4, !tbaa !59
  %14 = and i32 %13, 1
  %.not = icmp eq i32 %14, 0
  br i1 %.not, label %17, label %15

15:                                               ; preds = %10
  %16 = or i32 %13, %9
  store i32 %16, ptr %12, align 4, !tbaa !59
  %.val25.pre = load i32, ptr %5, align 4, !tbaa !22
  br label %17

17:                                               ; preds = %10, %15
  %.val25 = phi i32 [ %.val2543, %10 ], [ %.val25.pre, %15 ]
  %indvars.iv.next = add nuw nsw i64 %indvars.iv, 1
  %18 = sext i32 %.val25 to i64
  %19 = icmp slt i64 %indvars.iv.next, %18
  br i1 %19, label %10, label %.critedge, !llvm.loop !95

.critedge:                                        ; preds = %17, %..critedge_crit_edge
  %.val32 = phi i32 [ %.val2528, %..critedge_crit_edge ], [ %.val25, %17 ]
  %.0 = phi i32 [ %6, %..critedge_crit_edge ], [ 1, %17 ]
  %20 = getelementptr i8, ptr %0, i64 4
  %21 = icmp sgt i32 %.val32, 0
  br i1 %21, label %.lr.ph34, label %.critedge2

.lr.ph34:                                         ; preds = %.critedge
  %22 = getelementptr i8, ptr %0, i64 8
  %.val26 = load ptr, ptr %22, align 8, !tbaa !25
  %23 = icmp slt i32 %.0, %2
  br i1 %23, label %.lr.ph31.us.preheader, label %.critedge2

.lr.ph31.us.preheader:                            ; preds = %.lr.ph34
  %24 = sext i32 %.0 to i64
  %wide.trip.count = sext i32 %2 to i64
  br label %.lr.ph31.us

.lr.ph31.us:                                      ; preds = %.lr.ph31.us.preheader, %._crit_edge.us
  %indvars.iv40 = phi i64 [ 0, %.lr.ph31.us.preheader ], [ %indvars.iv.next41, %._crit_edge.us ]
  %25 = getelementptr inbounds nuw ptr, ptr %.val26, i64 %indvars.iv40
  %26 = load ptr, ptr %25, align 8, !tbaa !19
  %.pre = load i32, ptr %26, align 4, !tbaa !59
  br label %27

27:                                               ; preds = %.lr.ph31.us, %27
  %indvars.iv37 = phi i64 [ %24, %.lr.ph31.us ], [ %indvars.iv.next38, %27 ]
  %28 = getelementptr inbounds i32, ptr %26, i64 %indvars.iv37
  store i32 %.pre, ptr %28, align 4, !tbaa !59
  %indvars.iv.next38 = add nsw i64 %indvars.iv37, 1
  %exitcond.not = icmp eq i64 %indvars.iv.next38, %wide.trip.count
  br i1 %exitcond.not, label %._crit_edge.us, label %27, !llvm.loop !96

._crit_edge.us:                                   ; preds = %27
  %indvars.iv.next41 = add nuw nsw i64 %indvars.iv40, 1
  %.val.us = load i32, ptr %20, align 4, !tbaa !22
  %29 = sext i32 %.val.us to i64
  %30 = icmp slt i64 %indvars.iv.next41, %29
  br i1 %30, label %.lr.ph31.us, label %.critedge2, !llvm.loop !97

.critedge2:                                       ; preds = %._crit_edge.us, %.preheader, %.lr.ph34, %.critedge
  ret void
}